target datalayout = "e-m:e-p270:32:32-p271:32:32-p272:64:64-i64:64-i128:128-f80:128-n8:16:32:64-S128"
target triple = "x86_64-pc-linux-gnu"

%struct.ossl_global_properties_st = type { ptr, i8 }

; Function Attrs: nounwind uwtable
define i32 @ossl_global_properties_no_mirrored(ptr noundef %0) #0 {
  %2 = alloca ptr, align 8
  %3 = alloca ptr, align 8
  store ptr %0, ptr %2, align 8, !tbaa !13
  call void @llvm.lifetime.start.p0(i64 8, ptr %3) #7
  %4 = load ptr, ptr %2, align 8, !tbaa !13
  %5 = call ptr @ossl_lib_ctx_get_data(ptr noundef %4, i32 noundef 14)
  store ptr %5, ptr %3, align 8, !tbaa !7
  %6 = load ptr, ptr %3, align 8, !tbaa !7
  %7 = icmp ne ptr %6, null
  br i1 %7, label %8, label %15

8:                                                ; preds = %1
  %9 = load ptr, ptr %3, align 8, !tbaa !7
  %10 = getelementptr inbounds nuw %struct.ossl_global_properties_st, ptr %9, i32 0, i32 1
  %11 = load i8, ptr %10, align 8
  %12 = and i8 %11, 1
  %13 = zext i8 %12 to i32
  %14 = icmp ne i32 %13, 0
  br label %15

15:                                               ; preds = %8, %1
  %16 = phi i1 [ false, %1 ], [ %14, %8 ]
  %17 = select i1 %16, i32 1, i32 0
  call void @llvm.lifetime.end.p0(i64 8, ptr %3) #7
  ret i32 %17
}