; Function Attrs: nounwind uwtable
define range(i32 0, 2) i32 @ossl_global_properties_no_mirrored(ptr noundef %0) local_unnamed_addr #0 {
  %2 = tail call ptr @ossl_lib_ctx_get_data(ptr noundef %0, i32 noundef 14) #7
  %.not = icmp eq ptr %2, null
  br i1 %.not, label %8, label %3

3:                                                ; preds = %1
  %4 = getelementptr inbounds nuw i8, ptr %2, i64 8
  %5 = load i8, ptr %4, align 8
  %6 = and i8 %5, 1
  %7 = zext nneg i8 %6 to i32
  br label %8

8:                                                ; preds = %3, %1
  %9 = phi i32 [ 0, %1 ], [ %7, %3 ]
  ret i32 %9
}